target datalayout = "e-m:e-p270:32:32-p271:32:32-p272:64:64-i64:64-i128:128-f80:128-n8:16:32:64-S128"
target triple = "x86_64-pc-linux-gnu"

%"class.glslang::TParseVersions" = type { ptr, i8, i32, ptr, i32, i32, %"struct.glslang::SpvVersion", ptr, %"class.glslang::TMap", %"class.glslang::TMap.1", %"class.glslang::TVector", i32, i32, ptr }
%"struct.glslang::SpvVersion" = type <{ i32, i32, i32, i32, i8, [3 x i8] }>
%"class.glslang::TMap" = type { %"class.std::map" }
%"class.std::map" = type { %"class.std::_Rb_tree" }
%"class.std::_Rb_tree" = type { %"struct.std::_Rb_tree<std::__cxx11::basic_string<char, std::char_traits<char>, glslang::pool_allocator<char>>, std::pair<const std::__cxx11::basic_string<char, std::char_traits<char>, glslang::pool_allocator<char>>, glslang::TExtensionBehavior>, std::_Select1st<std::pair<const std::__cxx11::basic_string<char, std::char_traits<char>, glslang::pool_allocator<char>>, glslang::TExtensionBehavior>>, std::less<std::__cxx11::basic_string<char, std::char_traits<char>, glslang::pool_allocator<char>>>, glslang::pool_allocator<std::pair<const std::__cxx11::basic_string<char, std::char_traits<char>, glslang::pool_allocator<char>>, glslang::TExtensionBehavior>>>::_Rb_tree_impl" }
%"struct.std::_Rb_tree<std::__cxx11::basic_string<char, std::char_traits<char>, glslang::pool_allocator<char>>, std::pair<const std::__cxx11::basic_string<char, std::char_traits<char>, glslang::pool_allocator<char>>, glslang::TExtensionBehavior>, std::_Select1st<std::pair<const std::__cxx11::basic_string<char, std::char_traits<char>, glslang::pool_allocator<char>>, glslang::TExtensionBehavior>>, std::less<std::__cxx11::basic_string<char, std::char_traits<char>, glslang::pool_allocator<char>>>, glslang::pool_allocator<std::pair<const std::__cxx11::basic_string<char, std::char_traits<char>, glslang::pool_allocator<char>>, glslang::TExtensionBehavior>>>::_Rb_tree_impl" = type { %"class.glslang::pool_allocator.0", %"struct.std::_Rb_tree_key_compare", %"struct.std::_Rb_tree_header" }
%"class.glslang::pool_allocator.0" = type { ptr }
%"struct.std::_Rb_tree_key_compare" = type { %"struct.std::less" }
%"struct.std::less" = type { i8 }
%"struct.std::_Rb_tree_header" = type { %"struct.std::_Rb_tree_node_base", i64 }
%"struct.std::_Rb_tree_node_base" = type { i32, ptr, ptr, ptr }
%"class.glslang::TMap.1" = type { %"class.std::map.2" }
%"class.std::map.2" = type { %"class.std::_Rb_tree.3" }
%"class.std::_Rb_tree.3" = type { %"struct.std::_Rb_tree<std::__cxx11::basic_string<char, std::char_traits<char>, glslang::pool_allocator<char>>, std::pair<const std::__cxx11::basic_string<char, std::char_traits<char>, glslang::pool_allocator<char>>, unsigned int>, std::_Select1st<std::pair<const std::__cxx11::basic_string<char, std::char_traits<char>, glslang::pool_allocator<char>>, unsigned int>>, std::less<std::__cxx11::basic_string<char, std::char_traits<char>, glslang::pool_allocator<char>>>, glslang::pool_allocator<std::pair<const std::__cxx11::basic_string<char, std::char_traits<char>, glslang::pool_allocator<char>>, unsigned int>>>::_Rb_tree_impl" }
%"struct.std::_Rb_tree<std::__cxx11::basic_string<char, std::char_traits<char>, glslang::pool_allocator<char>>, std::pair<const std::__cxx11::basic_string<char, std::char_traits<char>, glslang::pool_allocator<char>>, unsigned int>, std::_Select1st<std::pair<const std::__cxx11::basic_string<char, std::char_traits<char>, glslang::pool_allocator<char>>, unsigned int>>, std::less<std::__cxx11::basic_string<char, std::char_traits<char>, glslang::pool_allocator<char>>>, glslang::pool_allocator<std::pair<const std::__cxx11::basic_string<char, std::char_traits<char>, glslang::pool_allocator<char>>, unsigned int>>>::_Rb_tree_impl" = type { %"class.glslang::pool_allocator.4", %"struct.std::_Rb_tree_key_compare", %"struct.std::_Rb_tree_header" }
%"class.glslang::pool_allocator.4" = type { ptr }
%"class.glslang::TQualifier" = type <{ ptr, i64, i8, [3 x i8], i32, i32, i64, i64, i8, i8, i8, i8, i8, [3 x i8], i32, i8, i8, i8, i8, i32, ptr, i8, i8, [6 x i8] }>
%"class.glslang::TVector" = type { %"class.std::vector" }
%"class.std::vector" = type { %"struct.std::_Vector_base" }
%"struct.std::_Vector_base" = type { %"struct.std::_Vector_base<std::__cxx11::basic_string<char, std::char_traits<char>, glslang::pool_allocator<char>>, glslang::pool_allocator<std::__cxx11::basic_string<char, std::char_traits<char>, glslang::pool_allocator<char>>>>::_Vector_impl" }
%"struct.std::_Vector_base<std::__cxx11::basic_string<char, std::char_traits<char>, glslang::pool_allocator<char>>, glslang::pool_allocator<std::__cxx11::basic_string<char, std::char_traits<char>, glslang::pool_allocator<char>>>>::_Vector_impl" = type { %"class.glslang::pool_allocator.5", %"struct.std::_Vector_base<std::__cxx11::basic_string<char, std::char_traits<char>, glslang::pool_allocator<char>>, glslang::pool_allocator<std::__cxx11::basic_string<char, std::char_traits<char>, glslang::pool_allocator<char>>>>::_Vector_impl_data" }
%"class.glslang::pool_allocator.5" = type { ptr }
%"struct.std::_Vector_base<std::__cxx11::basic_string<char, std::char_traits<char>, glslang::pool_allocator<char>>, glslang::pool_allocator<std::__cxx11::basic_string<char, std::char_traits<char>, glslang::pool_allocator<char>>>>::_Vector_impl_data" = type { ptr, ptr, ptr }
%"struct.glslang::TSourceLoc" = type { ptr, i32, i32, i32 }
%"class.glslang::TIntermOperator" = type { %"class.glslang::TIntermTyped", i32, i32 }
%"class.glslang::TIntermTyped" = type { %class.TIntermNode, %"class.glslang::TType" }
%class.TIntermNode = type { ptr, %"struct.glslang::TSourceLoc" }
%"class.glslang::TType" = type { ptr, i32, [4 x i8], %"class.glslang::TQualifier", ptr, %union.anon.267, ptr, ptr, %"struct.glslang::TSampler", ptr, ptr }
%union.anon.267 = type { ptr }
%"struct.glslang::TSampler" = type { i32 }

@.str.301 = private unnamed_addr constant [11 x i8] c"scalarCopy\00", align 1

; Function Attrs: mustprogress nounwind uwtable
define linkonce_odr noundef i32 @_ZNK7glslang15TIntermOperator5getOpEv(ptr noundef nonnull align 8 dereferenceable(192) %0) #0 comdat align 2 {
  %2 = alloca ptr, align 8
  store ptr %0, ptr %2, align 8
  %3 = load ptr, ptr %2, align 8
  %4 = getelementptr inbounds %"class.glslang::TIntermOperator", ptr %3, i32 0, i32 1
  %5 = load i32, ptr %4, align 8
  ret i32 %5
}

; Function Attrs: mustprogress nounwind uwtable
define linkonce_odr void @_ZN7glslang15TIntermOperator5setOpENS_9TOperatorE(ptr noundef nonnull align 8 dereferenceable(192) %0, i32 noundef %1) #0 comdat align 2 {
  %3 = alloca ptr, align 8
  %4 = alloca i32, align 4
  store ptr %0, ptr %3, align 8
  store i32 %1, ptr %4, align 4
  %5 = load ptr, ptr %3, align 8
  %6 = load i32, ptr %4, align 4
  %7 = getelementptr inbounds %"class.glslang::TIntermOperator", ptr %5, i32 0, i32 1
  store i32 %6, ptr %7, align 8
  ret void
}

; Function Attrs: mustprogress nounwind uwtable
define noundef zeroext i1 @_ZN7glslang16HlslParseContext19isScalarConstructorEPK11TIntermNode(ptr noundef nonnull align 8 dereferenceable(2489) %0, ptr noundef %1) #0 align 2 {
  %3 = alloca ptr, align 8
  %4 = alloca ptr, align 8
  store ptr %0, ptr %3, align 8
  store ptr %1, ptr %4, align 8
  %5 = load ptr, ptr %4, align 8
  %6 = load ptr, ptr %5, align 8
  %7 = getelementptr inbounds ptr, ptr %6, i64 15
  %8 = load ptr, ptr %7, align 8
  %9 = call noundef ptr %8(ptr noundef nonnull align 8 dereferenceable(32) %5)
  %10 = icmp ne ptr %9, null
  br i1 %10, label %11, label %38

11:                                               ; preds = %2
  %12 = load ptr, ptr %4, align 8
  %13 = load ptr, ptr %12, align 8
  %14 = getelementptr inbounds ptr, ptr %13, i64 15
  %15 = load ptr, ptr %14, align 8
  %16 = call noundef ptr %15(ptr noundef nonnull align 8 dereferenceable(32) %12)
  %17 = load ptr, ptr %16, align 8
  %18 = getelementptr inbounds ptr, ptr %17, i64 44
  %19 = load ptr, ptr %18, align 8
  %20 = call noundef zeroext i1 %19(ptr noundef nonnull align 8 dereferenceable(184) %16)
  br i1 %20, label %21, label %38

21:                                               ; preds = %11
  %22 = load ptr, ptr %4, align 8
  %23 = load ptr, ptr %22, align 8
  %24 = getelementptr inbounds ptr, ptr %23, i64 18
  %25 = load ptr, ptr %24, align 8
  %26 = call noundef ptr %25(ptr noundef nonnull align 8 dereferenceable(32) %22)
  %27 = icmp eq ptr %26, null
  br i1 %27, label %36, label %28

28:                                               ; preds = %21
  %29 = load ptr, ptr %4, align 8
  %30 = load ptr, ptr %29, align 8
  %31 = getelementptr inbounds ptr, ptr %30, i64 18
  %32 = load ptr, ptr %31, align 8
  %33 = call noundef ptr %32(ptr noundef nonnull align 8 dereferenceable(32) %29)
  %34 = call noundef i32 @_ZNK7glslang15TIntermOperator5getOpEv(ptr noundef nonnull align 8 dereferenceable(192) %33)
  %35 = icmp ne i32 %34, 0
  br label %36

36:                                               ; preds = %28, %21
  %37 = phi i1 [ true, %21 ], [ %35, %28 ]
  br label %38

38:                                               ; preds = %36, %11, %2
  %39 = phi i1 [ false, %11 ], [ false, %2 ], [ %37, %36 ]
  ret i1 %39
}

; Function Attrs: mustprogress nounwind uwtable
define noundef ptr @_ZN7glslang16HlslParseContext17handleConstructorERKNS_10TSourceLocEPNS_12TIntermTypedERKNS_5TTypeE(ptr noundef nonnull align 8 dereferenceable(2489) %0, ptr noundef nonnull align 8 dereferenceable(24) %1, ptr noundef %2, ptr noundef nonnull align 8 dereferenceable(152) %3) #0 align 2 {
  %5 = alloca ptr, align 8
  %6 = alloca ptr, align 8
  %7 = alloca ptr, align 8
  %8 = alloca ptr, align 8
  %9 = alloca ptr, align 8
  %10 = alloca ptr, align 8
  %11 = alloca ptr, align 8
  store ptr %0, ptr %6, align 8
  store ptr %1, ptr %7, align 8
  store ptr %2, ptr %8, align 8
  store ptr %3, ptr %9, align 8
  %12 = load ptr, ptr %6, align 8
  %13 = load ptr, ptr %8, align 8
  %14 = icmp eq ptr %13, null
  br i1 %14, label %15, label %16

15:                                               ; preds = %4
  store ptr null, ptr %5, align 8
  br label %104

16:                                               ; preds = %4
  %17 = load ptr, ptr %9, align 8
  %18 = load ptr, ptr %8, align 8
  %19 = load ptr, ptr %18, align 8
  %20 = getelementptr inbounds ptr, ptr %19, i64 30
  %21 = load ptr, ptr %20, align 8
  %22 = call noundef nonnull align 8 dereferenceable(152) ptr %21(ptr noundef nonnull align 8 dereferenceable(184) %18)
  %23 = call noundef zeroext i1 @_ZNK7glslang5TTypeeqERKS0_(ptr noundef nonnull align 8 dereferenceable(152) %17, ptr noundef nonnull align 8 dereferenceable(152) %22)
  br i1 %23, label %24, label %26

24:                                               ; preds = %16
  %25 = load ptr, ptr %8, align 8
  store ptr %25, ptr %5, align 8
  br label %104

26:                                               ; preds = %16
  %27 = load ptr, ptr %9, align 8
  %28 = load ptr, ptr %27, align 8
  %29 = getelementptr inbounds ptr, ptr %28, i64 37
  %30 = load ptr, ptr %29, align 8
  %31 = call noundef zeroext i1 %30(ptr noundef nonnull align 8 dereferenceable(152) %27)
  br i1 %31, label %32, label %99

32:                                               ; preds = %26
  %33 = load ptr, ptr %8, align 8
  %34 = call noundef zeroext i1 @_ZN7glslang16HlslParseContext19isScalarConstructorEPK11TIntermNode(ptr noundef nonnull align 8 dereferenceable(2489) %12, ptr noundef %33)
  br i1 %34, label %35, label %99

35:                                               ; preds = %32
  %36 = load ptr, ptr %8, align 8
  %37 = load ptr, ptr %36, align 8
  %38 = getelementptr inbounds ptr, ptr %37, i64 5
  %39 = load ptr, ptr %38, align 8
  %40 = call noundef ptr %39(ptr noundef nonnull align 8 dereferenceable(32) %36)
  %41 = icmp eq ptr %40, null
  br i1 %41, label %42, label %90

42:                                               ; preds = %35
  %43 = load ptr, ptr %8, align 8
  %44 = load ptr, ptr %43, align 8
  %45 = getelementptr inbounds ptr, ptr %44, i64 12
  %46 = load ptr, ptr %45, align 8
  %47 = call noundef ptr %46(ptr noundef nonnull align 8 dereferenceable(32) %43)
  %48 = icmp eq ptr %47, null
  br i1 %48, label %49, label %90

49:                                               ; preds = %42
  %50 = getelementptr inbounds %"class.glslang::TParseVersions", ptr %12, i32 0, i32 7
  %51 = load ptr, ptr %50, align 8
  %52 = load ptr, ptr %7, align 8
  %53 = call noundef ptr @_ZN7glslang13TIntermediate13makeAggregateERKNS_10TSourceLocE(ptr noundef nonnull align 8 dereferenceable(2024) %51, ptr noundef nonnull align 8 dereferenceable(24) %52)
  store ptr %53, ptr %10, align 8
  %54 = load ptr, ptr %7, align 8
  %55 = load ptr, ptr %8, align 8
  %56 = load ptr, ptr %55, align 8
  %57 = getelementptr inbounds ptr, ptr %56, i64 30
  %58 = load ptr, ptr %57, align 8
  %59 = call noundef nonnull align 8 dereferenceable(152) ptr %58(ptr noundef nonnull align 8 dereferenceable(184) %55)
  %60 = call noundef ptr @_ZNK7glslang16HlslParseContext24makeInternalVariableNodeERKNS_10TSourceLocEPKcRKNS_5TTypeE(ptr noundef nonnull align 8 dereferenceable(2489) %12, ptr noundef nonnull align 8 dereferenceable(24) %54, ptr noundef @.str.301, ptr noundef nonnull align 8 dereferenceable(152) %59)
  store ptr %60, ptr %11, align 8
  %61 = getelementptr inbounds %"class.glslang::TParseVersions", ptr %12, i32 0, i32 7
  %62 = load ptr, ptr %61, align 8
  %63 = load ptr, ptr %10, align 8
  %64 = getelementptr inbounds %"class.glslang::TParseVersions", ptr %12, i32 0, i32 7
  %65 = load ptr, ptr %64, align 8
  %66 = load ptr, ptr %11, align 8
  %67 = load ptr, ptr %8, align 8
  %68 = load ptr, ptr %7, align 8
  %69 = call noundef ptr @_ZNK7glslang13TIntermediate13addBinaryNodeENS_9TOperatorEPNS_12TIntermTypedES3_RKNS_10TSourceLocE(ptr noundef nonnull align 8 dereferenceable(2024) %65, i32 noundef 585, ptr noundef %66, ptr noundef %67, ptr noundef nonnull align 8 dereferenceable(24) %68)
  %70 = call noundef ptr @_ZN7glslang13TIntermediate13growAggregateEP11TIntermNodeS2_(ptr noundef nonnull align 8 dereferenceable(2024) %62, ptr noundef %63, ptr noundef %69)
  store ptr %70, ptr %10, align 8
  %71 = getelementptr inbounds %"class.glslang::TParseVersions", ptr %12, i32 0, i32 7
  %72 = load ptr, ptr %71, align 8
  %73 = load ptr, ptr %10, align 8
  %74 = load ptr, ptr %7, align 8
  %75 = load ptr, ptr %9, align 8
  %76 = getelementptr inbounds %"class.glslang::TParseVersions", ptr %12, i32 0, i32 7
  %77 = load ptr, ptr %76, align 8
  %78 = load ptr, ptr %7, align 8
  %79 = call noundef ptr @_ZN7glslang13TIntermediate13makeAggregateERKNS_10TSourceLocE(ptr noundef nonnull align 8 dereferenceable(2024) %77, ptr noundef nonnull align 8 dereferenceable(24) %78)
  %80 = load ptr, ptr %11, align 8
  %81 = call noundef ptr @_ZN7glslang16HlslParseContext22convertInitializerListERKNS_10TSourceLocERKNS_5TTypeEPNS_12TIntermTypedES8_(ptr noundef nonnull align 8 dereferenceable(2489) %12, ptr noundef nonnull align 8 dereferenceable(24) %74, ptr noundef nonnull align 8 dereferenceable(152) %75, ptr noundef %79, ptr noundef %80)
  %82 = call noundef ptr @_ZN7glslang13TIntermediate13growAggregateEP11TIntermNodeS2_(ptr noundef nonnull align 8 dereferenceable(2024) %72, ptr noundef %73, ptr noundef %81)
  store ptr %82, ptr %10, align 8
  %83 = load ptr, ptr %10, align 8
  call void @_ZN7glslang15TIntermOperator5setOpENS_9TOperatorE(ptr noundef nonnull align 8 dereferenceable(192) %83, i32 noundef 174)
  %84 = load ptr, ptr %10, align 8
  %85 = load ptr, ptr %9, align 8
  %86 = load ptr, ptr %84, align 8
  %87 = getelementptr inbounds ptr, ptr %86, i64 29
  %88 = load ptr, ptr %87, align 8
  call void %88(ptr noundef nonnull align 8 dereferenceable(184) %84, ptr noundef nonnull align 8 dereferenceable(152) %85)
  %89 = load ptr, ptr %10, align 8
  store ptr %89, ptr %5, align 8
  br label %104

90:                                               ; preds = %42, %35
  %91 = load ptr, ptr %7, align 8
  %92 = load ptr, ptr %9, align 8
  %93 = getelementptr inbounds %"class.glslang::TParseVersions", ptr %12, i32 0, i32 7
  %94 = load ptr, ptr %93, align 8
  %95 = load ptr, ptr %7, align 8
  %96 = call noundef ptr @_ZN7glslang13TIntermediate13makeAggregateERKNS_10TSourceLocE(ptr noundef nonnull align 8 dereferenceable(2024) %94, ptr noundef nonnull align 8 dereferenceable(24) %95)
  %97 = load ptr, ptr %8, align 8
  %98 = call noundef ptr @_ZN7glslang16HlslParseContext22convertInitializerListERKNS_10TSourceLocERKNS_5TTypeEPNS_12TIntermTypedES8_(ptr noundef nonnull align 8 dereferenceable(2489) %12, ptr noundef nonnull align 8 dereferenceable(24) %91, ptr noundef nonnull align 8 dereferenceable(152) %92, ptr noundef %96, ptr noundef %97)
  store ptr %98, ptr %5, align 8
  br label %104

99:                                               ; preds = %32, %26
  %100 = load ptr, ptr %7, align 8
  %101 = load ptr, ptr %8, align 8
  %102 = load ptr, ptr %9, align 8
  %103 = call noundef ptr @_ZN7glslang16HlslParseContext14addConstructorERKNS_10TSourceLocEPNS_12TIntermTypedERKNS_5TTypeE(ptr noundef nonnull align 8 dereferenceable(2489) %12, ptr noundef nonnull align 8 dereferenceable(24) %100, ptr noundef %101, ptr noundef nonnull align 8 dereferenceable(152) %102)
  store ptr %103, ptr %5, align 8
  br label %104

104:                                              ; preds = %99, %90, %49, %24, %15
  %105 = load ptr, ptr %5, align 8
  ret ptr %105
}