; Function Attrs: mustprogress nounwind uwtable
define noundef ptr @_ZN7glslang16HlslParseContext17handleConstructorERKNS_10TSourceLocEPNS_12TIntermTypedERKNS_5TTypeE(ptr noundef nonnull align 8 dereferenceable(2489) %0, ptr noundef nonnull align 8 dereferenceable(24) %1, ptr noundef %2, ptr noundef nonnull align 8 dereferenceable(152) %3) local_unnamed_addr #0 align 2 {
  %5 = icmp eq ptr %2, null
  br i1 %5, label %80, label %6

6:                                                ; preds = %4
  %7 = load ptr, ptr %2, align 8
  %8 = getelementptr inbounds i8, ptr %7, i64 240
  %9 = load ptr, ptr %8, align 8
  %10 = tail call noundef nonnull align 8 dereferenceable(152) ptr %9(ptr noundef nonnull align 8 dereferenceable(184) %2) #24
  %11 = tail call noundef zeroext i1 @_ZNK7glslang5TTypeeqERKS0_(ptr noundef nonnull align 8 dereferenceable(152) %3, ptr noundef nonnull align 8 dereferenceable(152) %10)
  br i1 %11, label %80, label %12

12:                                               ; preds = %6
  %13 = load ptr, ptr %3, align 8
  %14 = getelementptr inbounds i8, ptr %13, i64 296
  %15 = load ptr, ptr %14, align 8
  %16 = tail call noundef zeroext i1 %15(ptr noundef nonnull align 8 dereferenceable(152) %3) #24
  br i1 %16, label %17, label %_ZN7glslang16HlslParseContext19isScalarConstructorEPK11TIntermNode.exit.thread

17:                                               ; preds = %12
  %18 = load ptr, ptr %2, align 8
  %19 = getelementptr inbounds i8, ptr %18, i64 120
  %20 = load ptr, ptr %19, align 8
  %21 = tail call noundef ptr %20(ptr noundef nonnull align 8 dereferenceable(32) %2) #24
  %.not.i = icmp eq ptr %21, null
  br i1 %.not.i, label %_ZN7glslang16HlslParseContext19isScalarConstructorEPK11TIntermNode.exit.thread, label %22

22:                                               ; preds = %17
  %23 = load ptr, ptr %2, align 8
  %24 = getelementptr inbounds i8, ptr %23, i64 120
  %25 = load ptr, ptr %24, align 8
  %26 = tail call noundef ptr %25(ptr noundef nonnull align 8 dereferenceable(32) %2) #24
  %27 = load ptr, ptr %26, align 8
  %28 = getelementptr inbounds i8, ptr %27, i64 352
  %29 = load ptr, ptr %28, align 8
  %30 = tail call noundef zeroext i1 %29(ptr noundef nonnull align 8 dereferenceable(184) %26) #24
  br i1 %30, label %31, label %_ZN7glslang16HlslParseContext19isScalarConstructorEPK11TIntermNode.exit.thread

31:                                               ; preds = %22
  %32 = load ptr, ptr %2, align 8
  %33 = getelementptr inbounds i8, ptr %32, i64 144
  %34 = load ptr, ptr %33, align 8
  %35 = tail call noundef ptr %34(ptr noundef nonnull align 8 dereferenceable(32) %2) #24
  %36 = icmp eq ptr %35, null
  br i1 %36, label %_ZN7glslang16HlslParseContext19isScalarConstructorEPK11TIntermNode.exit.thread34, label %_ZN7glslang16HlslParseContext19isScalarConstructorEPK11TIntermNode.exit

_ZN7glslang16HlslParseContext19isScalarConstructorEPK11TIntermNode.exit: ; preds = %31
  %37 = load ptr, ptr %2, align 8
  %38 = getelementptr inbounds i8, ptr %37, i64 144
  %39 = load ptr, ptr %38, align 8
  %40 = tail call noundef ptr %39(ptr noundef nonnull align 8 dereferenceable(32) %2) #24
  %41 = getelementptr inbounds i8, ptr %40, i64 184
  %42 = load i32, ptr %41, align 8
  %.not = icmp eq i32 %42, 0
  br i1 %.not, label %_ZN7glslang16HlslParseContext19isScalarConstructorEPK11TIntermNode.exit.thread, label %_ZN7glslang16HlslParseContext19isScalarConstructorEPK11TIntermNode.exit.thread34

_ZN7glslang16HlslParseContext19isScalarConstructorEPK11TIntermNode.exit.thread34: ; preds = %31, %_ZN7glslang16HlslParseContext19isScalarConstructorEPK11TIntermNode.exit
  %43 = load ptr, ptr %2, align 8
  %44 = getelementptr inbounds i8, ptr %43, i64 40
  %45 = load ptr, ptr %44, align 8
  %46 = tail call noundef ptr %45(ptr noundef nonnull align 8 dereferenceable(32) %2) #24
  %47 = icmp eq ptr %46, null
  br i1 %47, label %48, label %74

48:                                               ; preds = %_ZN7glslang16HlslParseContext19isScalarConstructorEPK11TIntermNode.exit.thread34
  %49 = load ptr, ptr %2, align 8
  %50 = getelementptr inbounds i8, ptr %49, i64 96
  %51 = load ptr, ptr %50, align 8
  %52 = tail call noundef ptr %51(ptr noundef nonnull align 8 dereferenceable(32) %2) #24
  %53 = icmp eq ptr %52, null
  br i1 %53, label %54, label %74

54:                                               ; preds = %48
  %55 = getelementptr inbounds i8, ptr %0, i64 56
  %56 = load ptr, ptr %55, align 8
  %57 = tail call noundef ptr @_ZN7glslang13TIntermediate13makeAggregateERKNS_10TSourceLocE(ptr noundef nonnull align 8 dereferenceable(2024) %56, ptr noundef nonnull align 8 dereferenceable(24) %1) #24
  %58 = load ptr, ptr %2, align 8
  %59 = getelementptr inbounds i8, ptr %58, i64 240
  %60 = load ptr, ptr %59, align 8
  %61 = tail call noundef nonnull align 8 dereferenceable(152) ptr %60(ptr noundef nonnull align 8 dereferenceable(184) %2) #24
  %62 = tail call noundef ptr @_ZNK7glslang16HlslParseContext24makeInternalVariableNodeERKNS_10TSourceLocEPKcRKNS_5TTypeE(ptr noundef nonnull align 8 dereferenceable(2489) %0, ptr noundef nonnull align 8 dereferenceable(24) %1, ptr noundef nonnull @.str.301, ptr noundef nonnull align 8 dereferenceable(152) %61)
  %63 = load ptr, ptr %55, align 8
  %64 = tail call noundef ptr @_ZNK7glslang13TIntermediate13addBinaryNodeENS_9TOperatorEPNS_12TIntermTypedES3_RKNS_10TSourceLocE(ptr noundef nonnull align 8 dereferenceable(2024) %63, i32 noundef 585, ptr noundef %62, ptr noundef nonnull %2, ptr noundef nonnull align 8 dereferenceable(24) %1) #24
  %65 = tail call noundef ptr @_ZN7glslang13TIntermediate13growAggregateEP11TIntermNodeS2_(ptr noundef nonnull align 8 dereferenceable(2024) %63, ptr noundef %57, ptr noundef %64) #24
  %66 = load ptr, ptr %55, align 8
  %67 = tail call noundef ptr @_ZN7glslang13TIntermediate13makeAggregateERKNS_10TSourceLocE(ptr noundef nonnull align 8 dereferenceable(2024) %66, ptr noundef nonnull align 8 dereferenceable(24) %1) #24
  %68 = tail call noundef ptr @_ZN7glslang16HlslParseContext22convertInitializerListERKNS_10TSourceLocERKNS_5TTypeEPNS_12TIntermTypedES8_(ptr noundef nonnull align 8 dereferenceable(2489) %0, ptr noundef nonnull align 8 dereferenceable(24) %1, ptr noundef nonnull align 8 dereferenceable(152) %3, ptr noundef %67, ptr noundef %62)
  %69 = tail call noundef ptr @_ZN7glslang13TIntermediate13growAggregateEP11TIntermNodeS2_(ptr noundef nonnull align 8 dereferenceable(2024) %66, ptr noundef %65, ptr noundef %68) #24
  %70 = getelementptr inbounds i8, ptr %69, i64 184
  store i32 174, ptr %70, align 8
  %71 = load ptr, ptr %69, align 8
  %72 = getelementptr inbounds i8, ptr %71, i64 232
  %73 = load ptr, ptr %72, align 8
  tail call void %73(ptr noundef nonnull align 8 dereferenceable(184) %69, ptr noundef nonnull align 8 dereferenceable(152) %3) #24
  br label %80

74:                                               ; preds = %48, %_ZN7glslang16HlslParseContext19isScalarConstructorEPK11TIntermNode.exit.thread34
  %75 = getelementptr inbounds i8, ptr %0, i64 56
  %76 = load ptr, ptr %75, align 8
  %77 = tail call noundef ptr @_ZN7glslang13TIntermediate13makeAggregateERKNS_10TSourceLocE(ptr noundef nonnull align 8 dereferenceable(2024) %76, ptr noundef nonnull align 8 dereferenceable(24) %1) #24
  %78 = tail call noundef ptr @_ZN7glslang16HlslParseContext22convertInitializerListERKNS_10TSourceLocERKNS_5TTypeEPNS_12TIntermTypedES8_(ptr noundef nonnull align 8 dereferenceable(2489) %0, ptr noundef nonnull align 8 dereferenceable(24) %1, ptr noundef nonnull align 8 dereferenceable(152) %3, ptr noundef %77, ptr noundef nonnull %2)
  br label %80

_ZN7glslang16HlslParseContext19isScalarConstructorEPK11TIntermNode.exit.thread: ; preds = %17, %22, %_ZN7glslang16HlslParseContext19isScalarConstructorEPK11TIntermNode.exit, %12
  %79 = tail call noundef ptr @_ZN7glslang16HlslParseContext14addConstructorERKNS_10TSourceLocEPNS_12TIntermTypedERKNS_5TTypeE(ptr noundef nonnull align 8 dereferenceable(2489) %0, ptr noundef nonnull align 8 dereferenceable(24) %1, ptr noundef nonnull %2, ptr noundef nonnull align 8 dereferenceable(152) %3)
  br label %80

80:                                               ; preds = %6, %4, %_ZN7glslang16HlslParseContext19isScalarConstructorEPK11TIntermNode.exit.thread, %74, %54
  %.0 = phi ptr [ %69, %54 ], [ %78, %74 ], [ %79, %_ZN7glslang16HlslParseContext19isScalarConstructorEPK11TIntermNode.exit.thread ], [ null, %4 ], [ %2, %6 ]
  ret ptr %.0
}